target datalayout = "e-m:e-p270:32:32-p271:32:32-p272:64:64-i64:64-i128:128-f80:128-n8:16:32:64-S128"
target triple = "x86_64-unknown-linux-gnu"

%"class.icu_75::TimeZoneRule" = type { %"class.icu_75::UObject", %"class.icu_75::UnicodeString", i32, i32 }
%"class.icu_75::UObject" = type { ptr }
%"class.icu_75::UnicodeString" = type { %"class.icu_75::Replaceable", %"union.icu_75::UnicodeString::StackBufferOrFields" }
%"class.icu_75::Replaceable" = type { %"class.icu_75::UObject" }
%"union.icu_75::UnicodeString::StackBufferOrFields" = type { %struct.anon.0, [32 x i8] }
%struct.anon.0 = type { i16, i32, i32, ptr }
%"class.std::type_info" = type { ptr, ptr }

; Function Attrs: mustprogress nounwind uwtable
define linkonce_odr noundef ptr @_ZNKSt9type_info4nameEv(ptr noundef nonnull align 8 dereferenceable(16) %this) #2 comdat align 2 {
entry:
  %this.addr = alloca ptr, align 8
  store ptr %this, ptr %this.addr, align 8
  %this1 = load ptr, ptr %this.addr, align 8
  %__name = getelementptr inbounds %"class.std::type_info", ptr %this1, i32 0, i32 1
  %0 = load ptr, ptr %__name, align 8
  %arrayidx = getelementptr inbounds i8, ptr %0, i64 0
  %1 = load i8, ptr %arrayidx, align 1
  %conv = sext i8 %1 to i32
  %cmp = icmp eq i32 %conv, 42
  br i1 %cmp, label %cond.true, label %cond.false

cond.true:                                        ; preds = %entry
  %__name2 = getelementptr inbounds %"class.std::type_info", ptr %this1, i32 0, i32 1
  %2 = load ptr, ptr %__name2, align 8
  %add.ptr = getelementptr inbounds i8, ptr %2, i64 1
  br label %cond.end

cond.false:                                       ; preds = %entry
  %__name3 = getelementptr inbounds %"class.std::type_info", ptr %this1, i32 0, i32 1
  %3 = load ptr, ptr %__name3, align 8
  br label %cond.end

cond.end:                                         ; preds = %cond.false, %cond.true
  %cond = phi ptr [ %add.ptr, %cond.true ], [ %3, %cond.false ]
  ret ptr %cond
}

; Function Attrs: mustprogress nounwind uwtable
define linkonce_odr noundef zeroext i1 @_ZNKSt9type_infoeqERKS_(ptr noundef nonnull align 8 dereferenceable(16) %this, ptr noundef nonnull align 8 dereferenceable(16) %__arg) #2 comdat align 2 {
entry:
  %retval = alloca i1, align 1
  %this.addr = alloca ptr, align 8
  %__arg.addr = alloca ptr, align 8
  store ptr %this, ptr %this.addr, align 8
  store ptr %__arg, ptr %__arg.addr, align 8
  %this1 = load ptr, ptr %this.addr, align 8
  %__name = getelementptr inbounds %"class.std::type_info", ptr %this1, i32 0, i32 1
  %0 = load ptr, ptr %__name, align 8
  %1 = load ptr, ptr %__arg.addr, align 8
  %__name2 = getelementptr inbounds %"class.std::type_info", ptr %1, i32 0, i32 1
  %2 = load ptr, ptr %__name2, align 8
  %cmp = icmp eq ptr %0, %2
  br i1 %cmp, label %if.then, label %if.end

if.then:                                          ; preds = %entry
  store i1 true, ptr %retval, align 1
  br label %return

if.end:                                           ; preds = %entry
  %__name3 = getelementptr inbounds %"class.std::type_info", ptr %this1, i32 0, i32 1
  %3 = load ptr, ptr %__name3, align 8
  %arrayidx = getelementptr inbounds i8, ptr %3, i64 0
  %4 = load i8, ptr %arrayidx, align 1
  %conv = sext i8 %4 to i32
  %cmp4 = icmp ne i32 %conv, 42
  br i1 %cmp4, label %land.rhs, label %land.end

land.rhs:                                         ; preds = %if.end
  %__name5 = getelementptr inbounds %"class.std::type_info", ptr %this1, i32 0, i32 1
  %5 = load ptr, ptr %__name5, align 8
  %6 = load ptr, ptr %__arg.addr, align 8
  %call = call noundef ptr @_ZNKSt9type_info4nameEv(ptr noundef nonnull align 8 dereferenceable(16) %6) #10
  %call6 = call i32 @strcmp(ptr noundef %5, ptr noundef %call) #10
  %cmp7 = icmp eq i32 %call6, 0
  br label %land.end

land.end:                                         ; preds = %land.rhs, %if.end
  %7 = phi i1 [ false, %if.end ], [ %cmp7, %land.rhs ]
  store i1 %7, ptr %retval, align 1
  br label %return

return:                                           ; preds = %land.end, %if.then
  %8 = load i1, ptr %retval, align 1
  ret i1 %8
}

; Function Attrs: mustprogress uwtable
define noundef signext i8 @_ZNK6icu_7512TimeZoneRule14isEquivalentToERKS0_(ptr noundef nonnull align 8 dereferenceable(80) %this, ptr noundef nonnull align 8 dereferenceable(80) %other) unnamed_addr #0 align 2 {
entry:
  %this.addr = alloca ptr, align 8
  %other.addr = alloca ptr, align 8
  store ptr %this, ptr %this.addr, align 8
  store ptr %other, ptr %other.addr, align 8
  %this1 = load ptr, ptr %this.addr, align 8
  %0 = load ptr, ptr %other.addr, align 8
  %cmp = icmp eq ptr %this1, %0
  br i1 %cmp, label %lor.end, label %lor.rhs

lor.rhs:                                          ; preds = %entry
  %1 = icmp eq ptr %this1, null
  br i1 %1, label %typeid.bad_typeid, label %typeid.end

typeid.bad_typeid:                                ; preds = %lor.rhs
  call void @__cxa_bad_typeid() #12
  unreachable

typeid.end:                                       ; preds = %lor.rhs
  %vtable = load ptr, ptr %this1, align 8
  %2 = getelementptr inbounds ptr, ptr %vtable, i64 -1
  %3 = load ptr, ptr %2, align 8
  %4 = load ptr, ptr %other.addr, align 8
  %vtable2 = load ptr, ptr %4, align 8
  %5 = getelementptr inbounds ptr, ptr %vtable2, i64 -1
  %6 = load ptr, ptr %5, align 8
  %call = call noundef zeroext i1 @_ZNKSt9type_infoeqERKS_(ptr noundef nonnull align 8 dereferenceable(16) %3, ptr noundef nonnull align 8 dereferenceable(16) %6) #10
  br i1 %call, label %land.lhs.true, label %land.end

land.lhs.true:                                    ; preds = %typeid.end
  %fRawOffset = getelementptr inbounds %"class.icu_75::TimeZoneRule", ptr %this1, i32 0, i32 2
  %7 = load i32, ptr %fRawOffset, align 8
  %8 = load ptr, ptr %other.addr, align 8
  %fRawOffset3 = getelementptr inbounds %"class.icu_75::TimeZoneRule", ptr %8, i32 0, i32 2
  %9 = load i32, ptr %fRawOffset3, align 8
  %cmp4 = icmp eq i32 %7, %9
  br i1 %cmp4, label %land.rhs, label %land.end

land.rhs:                                         ; preds = %land.lhs.true
  %fDSTSavings = getelementptr inbounds %"class.icu_75::TimeZoneRule", ptr %this1, i32 0, i32 3
  %10 = load i32, ptr %fDSTSavings, align 4
  %11 = load ptr, ptr %other.addr, align 8
  %fDSTSavings5 = getelementptr inbounds %"class.icu_75::TimeZoneRule", ptr %11, i32 0, i32 3
  %12 = load i32, ptr %fDSTSavings5, align 4
  %cmp6 = icmp eq i32 %10, %12
  br label %land.end

land.end:                                         ; preds = %land.rhs, %land.lhs.true, %typeid.end
  %13 = phi i1 [ false, %land.lhs.true ], [ false, %typeid.end ], [ %cmp6, %land.rhs ]
  br label %lor.end

lor.end:                                          ; preds = %land.end, %entry
  %14 = phi i1 [ true, %entry ], [ %13, %land.end ]
  %conv = zext i1 %14 to i8
  ret i8 %conv
}

; Function Attrs: mustprogress nounwind uwtable
define linkonce_odr noundef zeroext i1 @_ZNKSt9type_infoneERKS_(ptr noundef nonnull align 8 dereferenceable(16) %this, ptr noundef nonnull align 8 dereferenceable(16) %__arg) #2 comdat align 2 {
entry:
  %this.addr = alloca ptr, align 8
  %__arg.addr = alloca ptr, align 8
  store ptr %this, ptr %this.addr, align 8
  store ptr %__arg, ptr %__arg.addr, align 8
  %this1 = load ptr, ptr %this.addr, align 8
  %0 = load ptr, ptr %__arg.addr, align 8
  %call = call noundef zeroext i1 @_ZNKSt9type_infoeqERKS_(ptr noundef nonnull align 8 dereferenceable(16) %this1, ptr noundef nonnull align 8 dereferenceable(16) %0) #10
  %lnot = xor i1 %call, true
  ret i1 %lnot
}

; Function Attrs: mustprogress uwtable
define noundef signext i8 @_ZNK6icu_7519InitialTimeZoneRule14isEquivalentToERKNS_12TimeZoneRuleE(ptr noundef nonnull align 8 dereferenceable(80) %this, ptr noundef nonnull align 8 dereferenceable(80) %other) unnamed_addr #0 align 2 {
entry:
  %retval = alloca i8, align 1
  %this.addr = alloca ptr, align 8
  %other.addr = alloca ptr, align 8
  store ptr %this, ptr %this.addr, align 8
  store ptr %other, ptr %other.addr, align 8
  %this1 = load ptr, ptr %this.addr, align 8
  %0 = load ptr, ptr %other.addr, align 8
  %cmp = icmp eq ptr %this1, %0
  br i1 %cmp, label %if.then, label %if.end

if.then:                                          ; preds = %entry
  store i8 1, ptr %retval, align 1
  br label %return

if.end:                                           ; preds = %entry
  %1 = icmp eq ptr %this1, null
  br i1 %1, label %typeid.bad_typeid, label %typeid.end

typeid.bad_typeid:                                ; preds = %if.end
  call void @__cxa_bad_typeid() #12
  unreachable

typeid.end:                                       ; preds = %if.end
  %vtable = load ptr, ptr %this1, align 8
  %2 = getelementptr inbounds ptr, ptr %vtable, i64 -1
  %3 = load ptr, ptr %2, align 8
  %4 = load ptr, ptr %other.addr, align 8
  %vtable2 = load ptr, ptr %4, align 8
  %5 = getelementptr inbounds ptr, ptr %vtable2, i64 -1
  %6 = load ptr, ptr %5, align 8
  %call = call noundef zeroext i1 @_ZNKSt9type_infoneERKS_(ptr noundef nonnull align 8 dereferenceable(16) %3, ptr noundef nonnull align 8 dereferenceable(16) %6) #10
  br i1 %call, label %if.then5, label %lor.lhs.false

lor.lhs.false:                                    ; preds = %typeid.end
  %7 = load ptr, ptr %other.addr, align 8
  %call3 = call noundef signext i8 @_ZNK6icu_7512TimeZoneRule14isEquivalentToERKS0_(ptr noundef nonnull align 8 dereferenceable(80) %this1, ptr noundef nonnull align 8 dereferenceable(80) %7)
  %conv = sext i8 %call3 to i32
  %cmp4 = icmp eq i32 %conv, 0
  br i1 %cmp4, label %if.then5, label %if.end6

if.then5:                                         ; preds = %lor.lhs.false, %typeid.end
  store i8 0, ptr %retval, align 1
  br label %return

if.end6:                                          ; preds = %lor.lhs.false
  store i8 1, ptr %retval, align 1
  br label %return

return:                                           ; preds = %if.end6, %if.then5, %if.then
  %8 = load i8, ptr %retval, align 1
  ret i8 %8
}